; Function Attrs: mustprogress uwtable
define void @_ZN6google8protobuf11StringPiece18LogFatalSizeTooBigEmPKc(i64 noundef %0, ptr noundef %1) local_unnamed_addr #0 align 2 personality ptr @__gxx_personality_v0 {
  %3 = alloca %"class.google::protobuf::internal::LogMessage", align 8
  %4 = alloca %"class.google::protobuf::internal::LogFinisher", align 1
  call void @llvm.lifetime.start.p0(i64 56, ptr nonnull %3) #16
  call void @_ZN6google8protobuf8internal10LogMessageC1ENS0_8LogLevelEPKci(ptr noundef nonnull align 8 dereferenceable(56) %3, i32 noundef 3, ptr noundef nonnull @.str, i32 noundef 49)
  %5 = invoke noundef nonnull align 8 dereferenceable(56) ptr @_ZN6google8protobuf8internal10LogMessagelsEPKc(ptr noundef nonnull align 8 dereferenceable(56) %3, ptr noundef nonnull @.str.1)
          to label %6 unwind label %14

6:                                                ; preds = %2
  %7 = invoke noundef nonnull align 8 dereferenceable(56) ptr @_ZN6google8protobuf8internal10LogMessagelsEm(ptr noundef nonnull align 8 dereferenceable(56) %5, i64 noundef %0)
          to label %8 unwind label %14

8:                                                ; preds = %6
  %9 = invoke noundef nonnull align 8 dereferenceable(56) ptr @_ZN6google8protobuf8internal10LogMessagelsEPKc(ptr noundef nonnull align 8 dereferenceable(56) %7, ptr noundef nonnull @.str.2)
          to label %10 unwind label %14

10:                                               ; preds = %8
  %11 = invoke noundef nonnull align 8 dereferenceable(56) ptr @_ZN6google8protobuf8internal10LogMessagelsEPKc(ptr noundef nonnull align 8 dereferenceable(56) %9, ptr noundef %1)
          to label %12 unwind label %14

12:                                               ; preds = %10
  call void @llvm.lifetime.start.p0(i64 1, ptr nonnull %4) #16
  invoke void @_ZN6google8protobuf8internal11LogFinisheraSERNS1_10LogMessageE(ptr noundef nonnull align 1 dereferenceable(1) %4, ptr noundef nonnull align 8 dereferenceable(56) %11)
          to label %13 unwind label %16

13:                                               ; preds = %12
  call void @llvm.lifetime.end.p0(i64 1, ptr nonnull %4) #16
  call void @_ZN6google8protobuf8internal10LogMessageD1Ev(ptr noundef nonnull align 8 dereferenceable(56) %3) #16
  call void @llvm.lifetime.end.p0(i64 56, ptr nonnull %3) #16
  ret void

14:                                               ; preds = %10, %8, %6, %2
  %15 = landingpad { ptr, i32 }
          cleanup
  br label %18

16:                                               ; preds = %12
  %17 = landingpad { ptr, i32 }
          cleanup
  call void @llvm.lifetime.end.p0(i64 1, ptr nonnull %4) #16
  br label %18

18:                                               ; preds = %16, %14
  %.pn = phi { ptr, i32 } [ %17, %16 ], [ %15, %14 ]
  call void @_ZN6google8protobuf8internal10LogMessageD1Ev(ptr noundef nonnull align 8 dereferenceable(56) %3) #16
  call void @llvm.lifetime.end.p0(i64 56, ptr nonnull %3) #16
  resume { ptr, i32 } %.pn
}